; Function Attrs: mustprogress nounwind uwtable
define void @_ZN34BluetoothAttServerAttributesDialogD2Ev(ptr noundef nonnull align 8 dereferenceable(208) %0) unnamed_addr #5 align 2 {
  store ptr getelementptr inbounds ({ [64 x ptr], [10 x ptr] }, ptr @_ZTV34BluetoothAttServerAttributesDialog, i64 0, i32 0, i64 2), ptr %0, align 8
  %2 = getelementptr inbounds i8, ptr %0, i64 16
  store ptr getelementptr inbounds ({ [64 x ptr], [10 x ptr] }, ptr @_ZTV34BluetoothAttServerAttributesDialog, i64 0, i32 1, i64 2), ptr %2, align 8
  %3 = getelementptr inbounds i8, ptr %0, i64 136
  %4 = load ptr, ptr %3, align 8
  %5 = icmp eq ptr %4, null
  br i1 %5, label %7, label %6

6:                                                ; preds = %1
  tail call void @_ZdlPv(ptr noundef nonnull %4) #18
  br label %7

7:                                                ; preds = %6, %1
  %8 = getelementptr inbounds i8, ptr %0, i64 168
  tail call void @_ZN5QMenuD1Ev(ptr noundef nonnull align 8 dereferenceable(40) %8) #17
  store ptr getelementptr inbounds ({ [64 x ptr], [10 x ptr] }, ptr @_ZTV15WiresharkDialog, i64 0, i32 0, i64 2), ptr %0, align 8
  store ptr getelementptr inbounds ({ [64 x ptr], [10 x ptr] }, ptr @_ZTV15WiresharkDialog, i64 0, i32 1, i64 2), ptr %2, align 8
  %9 = getelementptr inbounds i8, ptr %0, i64 104
  %10 = load ptr, ptr %9, align 8
  %.not.i.i.i.i = icmp eq ptr %10, null
  br i1 %.not.i.i.i.i, label %_ZN5QListIPvED2Ev.exit.i, label %_ZN17QArrayDataPointerIPvE5derefEv.exit.i.i.i

_ZN17QArrayDataPointerIPvE5derefEv.exit.i.i.i:    ; preds = %7
  %11 = atomicrmw sub ptr %10, i32 1 seq_cst, align 4
  %.not.i.i.i = icmp eq i32 %11, 1
  br i1 %.not.i.i.i, label %12, label %_ZN5QListIPvED2Ev.exit.i

12:                                               ; preds = %_ZN17QArrayDataPointerIPvE5derefEv.exit.i.i.i
  %13 = load ptr, ptr %9, align 8
  tail call void @_ZN10QArrayData10deallocateEPS_xx(ptr noundef %13, i64 noundef 8, i64 noundef 8) #17
  br label %_ZN5QListIPvED2Ev.exit.i

_ZN5QListIPvED2Ev.exit.i:                         ; preds = %12, %_ZN17QArrayDataPointerIPvE5derefEv.exit.i.i.i, %7
  %14 = getelementptr inbounds i8, ptr %0, i64 80
  %15 = load ptr, ptr %14, align 8
  %.not.i.i.i1.i = icmp eq ptr %15, null
  br i1 %.not.i.i.i1.i, label %_ZN15WiresharkDialogD2Ev.exit, label %_ZN17QArrayDataPointerIDsE5derefEv.exit.i.i.i

_ZN17QArrayDataPointerIDsE5derefEv.exit.i.i.i:    ; preds = %_ZN5QListIPvED2Ev.exit.i
  %16 = atomicrmw sub ptr %15, i32 1 seq_cst, align 4
  %.not.i.i2.i = icmp eq i32 %16, 1
  br i1 %.not.i.i2.i, label %17, label %_ZN15WiresharkDialogD2Ev.exit

17:                                               ; preds = %_ZN17QArrayDataPointerIDsE5derefEv.exit.i.i.i
  %18 = load ptr, ptr %14, align 8
  tail call void @_ZN10QArrayData10deallocateEPS_xx(ptr noundef %18, i64 noundef 2, i64 noundef 8) #17
  br label %_ZN15WiresharkDialogD2Ev.exit

_ZN15WiresharkDialogD2Ev.exit:                    ; preds = %_ZN5QListIPvED2Ev.exit.i, %_ZN17QArrayDataPointerIDsE5derefEv.exit.i.i.i, %17
  tail call void @_ZN19GeometryStateDialogD2Ev(ptr noundef nonnull align 8 dereferenceable(64) %0) #17
  ret void
}